; Function Attrs: nofree nounwind memory(read, argmem: readwrite, inaccessiblemem: none) uwtable
define dso_local void @cmsysMD5_Append(ptr noundef %0, ptr noundef %1, i32 noundef %2) local_unnamed_addr #6 {
  %4 = icmp slt i32 %2, 0
  br i1 %4, label %5, label %7

5:                                                ; preds = %3
  %6 = tail call i64 @strlen(ptr noundef nonnull dereferenceable(1) %1) #15
  br label %9

7:                                                ; preds = %3
  %8 = zext nneg i32 %2 to i64
  br label %9

9:                                                ; preds = %7, %5
  %.0 = phi i64 [ %6, %5 ], [ %8, %7 ]
  %10 = load i32, ptr %0, align 4, !tbaa !4
  %11 = lshr i32 %10, 3
  %12 = and i32 %11, 63
  %13 = zext nneg i32 %12 to i64
  %14 = icmp eq i64 %.0, 0
  br i1 %14, label %md5_append.exit, label %15

15:                                               ; preds = %9
  %.tr.i = trunc i64 %.0 to i32
  %16 = shl i32 %.tr.i, 3
  %17 = lshr i64 %.0, 29
  %18 = trunc i64 %17 to i32
  %19 = getelementptr inbounds nuw i8, ptr %0, i64 4
  %20 = load i32, ptr %19, align 4, !tbaa !4
  %21 = add i32 %20, %18
  store i32 %21, ptr %19, align 4, !tbaa !4
  %22 = add i32 %16, %10
  store i32 %22, ptr %0, align 4, !tbaa !4
  %23 = icmp ult i32 %22, %16
  br i1 %23, label %24, label %26

24:                                               ; preds = %15
  %25 = add i32 %21, 1
  store i32 %25, ptr %19, align 4, !tbaa !4
  br label %26

26:                                               ; preds = %24, %15
  %.not.i = icmp eq i32 %12, 0
  br i1 %.not.i, label %38, label %27

27:                                               ; preds = %26
  %28 = add i64 %.0, %13
  %29 = icmp ugt i64 %28, 64
  %30 = sub nuw nsw i64 64, %13
  %31 = select i1 %29, i64 %30, i64 %.0
  %32 = getelementptr inbounds nuw i8, ptr %0, i64 24
  %33 = getelementptr inbounds nuw i8, ptr %32, i64 %13
  tail call void @llvm.memcpy.p0.p0.i64(ptr nonnull align 1 %33, ptr align 1 %1, i64 %31, i1 false)
  %34 = add i64 %31, %13
  %35 = icmp ugt i64 %34, 63
  br i1 %35, label %.thread.i, label %md5_append.exit

.thread.i:                                        ; preds = %27
  %36 = getelementptr inbounds nuw i8, ptr %1, i64 %31
  %37 = sub i64 %.0, %31
  tail call fastcc void @md5_process(ptr noundef nonnull %0, ptr noundef nonnull %32)
  br label %38

38:                                               ; preds = %.thread.i, %26
  %.039.i = phi i64 [ %.0, %26 ], [ %37, %.thread.i ]
  %.0.i = phi ptr [ %1, %26 ], [ %36, %.thread.i ]
  %39 = icmp ugt i64 %.039.i, 63
  br i1 %39, label %.lr.ph.i, label %._crit_edge.i

.lr.ph.i:                                         ; preds = %38, %.lr.ph.i
  %.248.i = phi ptr [ %40, %.lr.ph.i ], [ %.0.i, %38 ]
  %.24147.i = phi i64 [ %41, %.lr.ph.i ], [ %.039.i, %38 ]
  tail call fastcc void @md5_process(ptr noundef nonnull %0, ptr noundef %.248.i)
  %40 = getelementptr inbounds nuw i8, ptr %.248.i, i64 64
  %41 = add i64 %.24147.i, -64
  %42 = icmp ugt i64 %41, 63
  br i1 %42, label %.lr.ph.i, label %._crit_edge.i, !llvm.loop !8

._crit_edge.i:                                    ; preds = %.lr.ph.i, %38
  %.241.lcssa.i = phi i64 [ %.039.i, %38 ], [ %41, %.lr.ph.i ]
  %.2.lcssa.i = phi ptr [ %.0.i, %38 ], [ %40, %.lr.ph.i ]
  %.not44.i = icmp eq i64 %.241.lcssa.i, 0
  br i1 %.not44.i, label %md5_append.exit, label %43

43:                                               ; preds = %._crit_edge.i
  %44 = getelementptr inbounds nuw i8, ptr %0, i64 24
  tail call void @llvm.memcpy.p0.p0.i64(ptr nonnull align 4 %44, ptr align 1 %.2.lcssa.i, i64 %.241.lcssa.i, i1 false)
  br label %md5_append.exit

md5_append.exit:                                  ; preds = %9, %27, %._crit_edge.i, %43
  ret void
}